target datalayout = "e-m:e-p270:32:32-p271:32:32-p272:64:64-i64:64-i128:128-f80:128-n8:16:32:64-S128"
target triple = "x86_64-pc-linux-gnu"

%"class.gmx::AnalysisDataProxy" = type <{ %"class.gmx::AbstractAnalysisData", %"class.gmx::IAnalysisDataModule", ptr, i32, i32, i8, [7 x i8] }>
%"class.gmx::AbstractAnalysisData" = type { ptr, %"class.std::unique_ptr" }
%"class.std::unique_ptr" = type { %"struct.std::__uniq_ptr_data" }
%"struct.std::__uniq_ptr_data" = type { %"class.std::__uniq_ptr_impl" }
%"class.std::__uniq_ptr_impl" = type { %"class.std::tuple" }
%"class.std::tuple" = type { %"struct.std::_Tuple_impl" }
%"struct.std::_Tuple_impl" = type { %"struct.std::_Head_base.4" }
%"struct.std::_Head_base.4" = type { ptr }
%"class.gmx::IAnalysisDataModule" = type { ptr }
%class.anon.17 = type { i8 }

@.str.2 = private unnamed_addr constant [132 x i8] c"generated/home/dtcxzyw/WorkSpace/Projects/compilers/llvm-opt-benchmark/bench/gromacs/gromacs/src/gromacs/analysisdata/dataproxy.cpp\00", align 1
@.str.5 = private unnamed_addr constant [17 x i8] c"data == &source_\00", align 1
@.str.6 = private unnamed_addr constant [21 x i8] c"Source data mismatch\00", align 1

; Function Attrs: mustprogress uwtable
define internal void @"_ZZN3gmx17AnalysisDataProxy19parallelDataStartedEPNS_20AbstractAnalysisDataERKNS_27AnalysisDataParallelOptionsEENK3$_0clEv"(ptr noundef nonnull align 1 dereferenceable(1) %0) #1 align 2 {
  %2 = alloca ptr, align 8
  store ptr %0, ptr %2, align 8
  call void @_ZN3gmx8internal13assertHandlerEPKcS2_S2_S2_i(ptr noundef @.str.5, ptr noundef @.str.6, ptr noundef @"__PRETTY_FUNCTION__._ZZN3gmx17AnalysisDataProxy19parallelDataStartedEPNS_20AbstractAnalysisDataERKNS_27AnalysisDataParallelOptionsEENK3$_0clEv", ptr noundef @.str.2, i32 noundef 105) #12
  unreachable
}

; Function Attrs: mustprogress uwtable
define noundef zeroext i1 @_ZN3gmx17AnalysisDataProxy19parallelDataStartedEPNS_20AbstractAnalysisDataERKNS_27AnalysisDataParallelOptionsE(ptr noundef nonnull align 8 dereferenceable(41) %0, ptr noundef %1, ptr noundef nonnull align 1 %2) unnamed_addr #1 align 2 {
  %4 = alloca ptr, align 8
  %5 = alloca ptr, align 8
  %6 = alloca ptr, align 8
  %7 = alloca %class.anon.17, align 1
  %8 = alloca i32, align 4
  store ptr %0, ptr %4, align 8
  store ptr %1, ptr %5, align 8
  store ptr %2, ptr %6, align 8
  %9 = load ptr, ptr %4, align 8
  %10 = load ptr, ptr %5, align 8
  %11 = getelementptr inbounds %"class.gmx::AnalysisDataProxy", ptr %9, i32 0, i32 2
  %12 = load ptr, ptr %11, align 8
  %13 = icmp eq ptr %10, %12
  br i1 %13, label %14, label %15

14:                                               ; preds = %3
  br label %16

15:                                               ; preds = %3
  call void @"_ZZN3gmx17AnalysisDataProxy19parallelDataStartedEPNS_20AbstractAnalysisDataERKNS_27AnalysisDataParallelOptionsEENK3$_0clEv"(ptr noundef nonnull align 1 dereferenceable(1) %7)
  br label %16

16:                                               ; preds = %15, %14
  %17 = load ptr, ptr %5, align 8
  %18 = call noundef i32 @_ZNK3gmx20AbstractAnalysisData12dataSetCountEv(ptr noundef nonnull align 8 dereferenceable(16) %17)
  call void @_ZN3gmx20AbstractAnalysisData15setDataSetCountEi(ptr noundef nonnull align 8 dereferenceable(16) %9, i32 noundef %18)
  store i32 0, ptr %8, align 4
  br label %19

19:                                               ; preds = %28, %16
  %20 = load i32, ptr %8, align 4
  %21 = load ptr, ptr %5, align 8
  %22 = call noundef i32 @_ZNK3gmx20AbstractAnalysisData12dataSetCountEv(ptr noundef nonnull align 8 dereferenceable(16) %21)
  %23 = icmp slt i32 %20, %22
  br i1 %23, label %24, label %31

24:                                               ; preds = %19
  %25 = load i32, ptr %8, align 4
  %26 = getelementptr inbounds %"class.gmx::AnalysisDataProxy", ptr %9, i32 0, i32 4
  %27 = load i32, ptr %26, align 4
  call void @_ZN3gmx20AbstractAnalysisData14setColumnCountEii(ptr noundef nonnull align 8 dereferenceable(16) %9, i32 noundef %25, i32 noundef %27)
  br label %28

28:                                               ; preds = %24
  %29 = load i32, ptr %8, align 4
  %30 = add nsw i32 %29, 1
  store i32 %30, ptr %8, align 4
  br label %19, !llvm.loop !7

31:                                               ; preds = %19
  %32 = call noundef nonnull align 8 dereferenceable(8) ptr @_ZN3gmx20AbstractAnalysisData13moduleManagerEv(ptr noundef nonnull align 8 dereferenceable(16) %9)
  %33 = load ptr, ptr %6, align 8
  call void @_ZN3gmx25AnalysisDataModuleManager23notifyParallelDataStartEPNS_20AbstractAnalysisDataERKNS_27AnalysisDataParallelOptionsE(ptr noundef nonnull align 8 dereferenceable(8) %32, ptr noundef %9, ptr noundef nonnull align 1 %33)
  %34 = call noundef nonnull align 8 dereferenceable(8) ptr @_ZN3gmx20AbstractAnalysisData13moduleManagerEv(ptr noundef nonnull align 8 dereferenceable(16) %9)
  %35 = call noundef zeroext i1 @_ZNK3gmx25AnalysisDataModuleManager16hasSerialModulesEv(ptr noundef nonnull align 8 dereferenceable(8) %34)
  %36 = xor i1 %35, true
  %37 = getelementptr inbounds %"class.gmx::AnalysisDataProxy", ptr %9, i32 0, i32 5
  %38 = zext i1 %36 to i8
  store i8 %38, ptr %37, align 8
  %39 = getelementptr inbounds %"class.gmx::AnalysisDataProxy", ptr %9, i32 0, i32 5
  %40 = load i8, ptr %39, align 8
  %41 = trunc i8 %40 to i1
  ret i1 %41
}