; Function Attrs: mustprogress uwtable
define noundef zeroext i1 @_ZN3gmx17AnalysisDataProxy19parallelDataStartedEPNS_20AbstractAnalysisDataERKNS_27AnalysisDataParallelOptionsE(ptr noundef nonnull align 8 dereferenceable(41) %0, ptr noundef %1, ptr noundef nonnull align 1 %2) unnamed_addr #1 align 2 {
  %4 = getelementptr inbounds i8, ptr %0, i64 24
  %5 = load ptr, ptr %4, align 8
  %6 = icmp eq ptr %5, %1
  br i1 %6, label %8, label %7

7:                                                ; preds = %3
  tail call void @_ZN3gmx8internal13assertHandlerEPKcS2_S2_S2_i(ptr noundef nonnull @.str.5, ptr noundef nonnull @.str.6, ptr noundef nonnull @"__PRETTY_FUNCTION__._ZZN3gmx17AnalysisDataProxy19parallelDataStartedEPNS_20AbstractAnalysisDataERKNS_27AnalysisDataParallelOptionsEENK3$_0clEv", ptr noundef nonnull @.str.2, i32 noundef 105) #12
  unreachable

8:                                                ; preds = %3
  %9 = tail call noundef i32 @_ZNK3gmx20AbstractAnalysisData12dataSetCountEv(ptr noundef nonnull align 8 dereferenceable(16) %1)
  tail call void @_ZN3gmx20AbstractAnalysisData15setDataSetCountEi(ptr noundef nonnull align 8 dereferenceable(16) %0, i32 noundef %9)
  %10 = tail call noundef i32 @_ZNK3gmx20AbstractAnalysisData12dataSetCountEv(ptr noundef nonnull align 8 dereferenceable(16) %1)
  %11 = icmp sgt i32 %10, 0
  br i1 %11, label %.lr.ph, label %._crit_edge

.lr.ph:                                           ; preds = %8
  %12 = getelementptr inbounds i8, ptr %0, i64 36
  br label %13

13:                                               ; preds = %.lr.ph, %13
  %.07 = phi i32 [ 0, %.lr.ph ], [ %15, %13 ]
  %14 = load i32, ptr %12, align 4
  tail call void @_ZN3gmx20AbstractAnalysisData14setColumnCountEii(ptr noundef nonnull align 8 dereferenceable(16) %0, i32 noundef %.07, i32 noundef %14)
  %15 = add nuw nsw i32 %.07, 1
  %16 = tail call noundef i32 @_ZNK3gmx20AbstractAnalysisData12dataSetCountEv(ptr noundef nonnull align 8 dereferenceable(16) %1)
  %17 = icmp slt i32 %15, %16
  br i1 %17, label %13, label %._crit_edge, !llvm.loop !7

._crit_edge:                                      ; preds = %13, %8
  %18 = tail call noundef nonnull align 8 dereferenceable(8) ptr @_ZN3gmx20AbstractAnalysisData13moduleManagerEv(ptr noundef nonnull align 8 dereferenceable(16) %0)
  tail call void @_ZN3gmx25AnalysisDataModuleManager23notifyParallelDataStartEPNS_20AbstractAnalysisDataERKNS_27AnalysisDataParallelOptionsE(ptr noundef nonnull align 8 dereferenceable(8) %18, ptr noundef nonnull %0, ptr noundef nonnull align 1 %2)
  %19 = tail call noundef nonnull align 8 dereferenceable(8) ptr @_ZN3gmx20AbstractAnalysisData13moduleManagerEv(ptr noundef nonnull align 8 dereferenceable(16) %0)
  %20 = tail call noundef zeroext i1 @_ZNK3gmx25AnalysisDataModuleManager16hasSerialModulesEv(ptr noundef nonnull align 8 dereferenceable(8) %19)
  %21 = xor i1 %20, true
  %22 = getelementptr inbounds i8, ptr %0, i64 40
  %23 = zext i1 %21 to i8
  store i8 %23, ptr %22, align 8
  ret i1 %21
}